target datalayout = "e-m:e-p270:32:32-p271:32:32-p272:64:64-i64:64-i128:128-f80:128-n8:16:32:64-S128"
target triple = "x86_64-pc-linux-gnu"

%"class.cv::GeneralizedHough" = type { %"class.cv::Algorithm" }
%"class.cv::Algorithm" = type { ptr }
%"class.(anonymous namespace)::GeneralizedHoughBase" = type { ptr, i32, i32, double, double, %"class.cv::Size_", %"class.cv::Point_", %"class.cv::Mat", %"class.cv::Mat", %"class.cv::Mat", %"class.cv::Size_", %"class.cv::Mat", %"class.cv::Mat", %"class.cv::Mat", %"class.std::vector", %"class.std::vector.16" }
%"class.cv::Point_" = type { i32, i32 }
%"class.cv::Size_" = type { i32, i32 }
%"class.std::vector" = type { %"struct.std::_Vector_base" }
%"struct.std::_Vector_base" = type { %"struct.std::_Vector_base<cv::Vec<float, 4>, std::allocator<cv::Vec<float, 4>>>::_Vector_impl" }
%"struct.std::_Vector_base<cv::Vec<float, 4>, std::allocator<cv::Vec<float, 4>>>::_Vector_impl" = type { %"struct.std::_Vector_base<cv::Vec<float, 4>, std::allocator<cv::Vec<float, 4>>>::_Vector_impl_data" }
%"struct.std::_Vector_base<cv::Vec<float, 4>, std::allocator<cv::Vec<float, 4>>>::_Vector_impl_data" = type { ptr, ptr, ptr }
%"class.std::vector.16" = type { %"struct.std::_Vector_base.17" }
%"struct.std::_Vector_base.17" = type { %"struct.std::_Vector_base<cv::Vec<int, 3>, std::allocator<cv::Vec<int, 3>>>::_Vector_impl" }
%"struct.std::_Vector_base<cv::Vec<int, 3>, std::allocator<cv::Vec<int, 3>>>::_Vector_impl" = type { %"struct.std::_Vector_base<cv::Vec<int, 3>, std::allocator<cv::Vec<int, 3>>>::_Vector_impl_data" }
%"struct.std::_Vector_base<cv::Vec<int, 3>, std::allocator<cv::Vec<int, 3>>>::_Vector_impl_data" = type { ptr, ptr, ptr }
%"class.cv::Mat" = type { i32, i32, i32, i32, ptr, ptr, ptr, ptr, ptr, ptr, %"struct.cv::MatSize", %"struct.cv::MatStep" }
%"struct.cv::MatSize" = type { ptr }
%"struct.cv::MatStep" = type { ptr, [2 x i64] }
%"class.(anonymous namespace)::GeneralizedHoughGuilImpl" = type { %"class.cv::GeneralizedHoughGuil", %"class.(anonymous namespace)::GeneralizedHoughBase", i32, double, i32, double, double, double, double, i32, double, double, double, i32, i32, %"class.std::vector.71", %"class.std::vector.71", %"class.std::vector.76", %"class.std::vector.76" }
%"class.cv::GeneralizedHoughGuil" = type { %"class.cv::GeneralizedHough" }
%"class.std::vector.71" = type { %"struct.std::_Vector_base.72" }
%"struct.std::_Vector_base.72" = type { %"struct.std::_Vector_base<std::vector<(anonymous namespace)::GeneralizedHoughGuilImpl::Feature>, std::allocator<std::vector<(anonymous namespace)::GeneralizedHoughGuilImpl::Feature>>>::_Vector_impl" }
%"struct.std::_Vector_base<std::vector<(anonymous namespace)::GeneralizedHoughGuilImpl::Feature>, std::allocator<std::vector<(anonymous namespace)::GeneralizedHoughGuilImpl::Feature>>>::_Vector_impl" = type { %"struct.std::_Vector_base<std::vector<(anonymous namespace)::GeneralizedHoughGuilImpl::Feature>, std::allocator<std::vector<(anonymous namespace)::GeneralizedHoughGuilImpl::Feature>>>::_Vector_impl_data" }
%"struct.std::_Vector_base<std::vector<(anonymous namespace)::GeneralizedHoughGuilImpl::Feature>, std::allocator<std::vector<(anonymous namespace)::GeneralizedHoughGuilImpl::Feature>>>::_Vector_impl_data" = type { ptr, ptr, ptr }
%"class.std::vector.76" = type { %"struct.std::_Vector_base.77" }
%"struct.std::_Vector_base.77" = type { %"struct.std::_Vector_base<std::pair<double, int>, std::allocator<std::pair<double, int>>>::_Vector_impl" }
%"struct.std::_Vector_base<std::pair<double, int>, std::allocator<std::pair<double, int>>>::_Vector_impl" = type { %"struct.std::_Vector_base<std::pair<double, int>, std::allocator<std::pair<double, int>>>::_Vector_impl_data" }
%"struct.std::_Vector_base<std::pair<double, int>, std::allocator<std::pair<double, int>>>::_Vector_impl_data" = type { ptr, ptr, ptr }
%"class.cv::Point_.86" = type { double, double }

; Function Attrs: inlinehint mustprogress nounwind uwtable
define linkonce_odr hidden void @_ZN2cv6Point_IdEC2Edd(ptr noundef nonnull align 8 dereferenceable(16) %0, double noundef %1, double noundef %2) unnamed_addr #3 comdat align 2 {
  %4 = alloca ptr, align 8
  %5 = alloca double, align 8
  %6 = alloca double, align 8
  store ptr %0, ptr %4, align 8, !tbaa !544
  store double %1, ptr %5, align 8, !tbaa !127
  store double %2, ptr %6, align 8, !tbaa !127
  %7 = load ptr, ptr %4, align 8
  %8 = getelementptr inbounds nuw %"class.cv::Point_.86", ptr %7, i32 0, i32 0
  %9 = load double, ptr %5, align 8, !tbaa !127
  store double %9, ptr %8, align 8, !tbaa !525
  %10 = getelementptr inbounds nuw %"class.cv::Point_.86", ptr %7, i32 0, i32 1
  %11 = load double, ptr %6, align 8, !tbaa !127
  store double %11, ptr %10, align 8, !tbaa !524
  ret void
}

; Function Attrs: inlinehint mustprogress nounwind uwtable
define internal noundef double @_ZN2cvL13saturate_castIdEET_i(i32 noundef %0) #3 {
  %2 = alloca i32, align 4
  store i32 %0, ptr %2, align 4, !tbaa !22
  %3 = load i32, ptr %2, align 4, !tbaa !22
  %4 = sitofp i32 %3 to double
  ret double %4
}

; Function Attrs: inlinehint mustprogress uwtable
define linkonce_odr hidden { double, double } @_ZNK2cv6Point_IiEcvNS0_IT_EEIdEEv(ptr noundef nonnull align 4 dereferenceable(8) %0) #2 comdat align 2 {
  %2 = alloca %"class.cv::Point_.86", align 8
  %3 = alloca ptr, align 8
  store ptr %0, ptr %3, align 8, !tbaa !144
  %4 = load ptr, ptr %3, align 8
  %5 = getelementptr inbounds nuw %"class.cv::Point_", ptr %4, i32 0, i32 0
  %6 = load i32, ptr %5, align 4, !tbaa !146
  %7 = call noundef double @_ZN2cvL13saturate_castIdEET_i(i32 noundef %6)
  %8 = getelementptr inbounds nuw %"class.cv::Point_", ptr %4, i32 0, i32 1
  %9 = load i32, ptr %8, align 4, !tbaa !147
  %10 = call noundef double @_ZN2cvL13saturate_castIdEET_i(i32 noundef %9)
  call void @_ZN2cv6Point_IdEC2Edd(ptr noundef nonnull align 8 dereferenceable(16) %2, double noundef %7, double noundef %10)
  %11 = load { double, double }, ptr %2, align 8
  ret { double, double } %11
}

; Function Attrs: mustprogress uwtable
define internal void @_ZN12_GLOBAL__N_124GeneralizedHoughGuilImpl12processTemplEv(ptr noundef nonnull align 8 dereferenceable(880) %0) unnamed_addr #0 align 2 {
  %2 = alloca ptr, align 8
  %3 = alloca %"class.cv::Point_.86", align 8
  store ptr %0, ptr %2, align 8, !tbaa !429
  %4 = load ptr, ptr %2, align 8
  %5 = getelementptr inbounds i8, ptr %4, i64 8
  %6 = getelementptr inbounds nuw %"class.(anonymous namespace)::GeneralizedHoughBase", ptr %5, i32 0, i32 7
  %7 = getelementptr inbounds i8, ptr %4, i64 8
  %8 = getelementptr inbounds nuw %"class.(anonymous namespace)::GeneralizedHoughBase", ptr %7, i32 0, i32 8
  %9 = getelementptr inbounds i8, ptr %4, i64 8
  %10 = getelementptr inbounds nuw %"class.(anonymous namespace)::GeneralizedHoughBase", ptr %9, i32 0, i32 9
  %11 = getelementptr inbounds nuw %"class.(anonymous namespace)::GeneralizedHoughGuilImpl", ptr %4, i32 0, i32 15
  %12 = getelementptr inbounds i8, ptr %4, i64 8
  %13 = getelementptr inbounds nuw %"class.(anonymous namespace)::GeneralizedHoughBase", ptr %12, i32 0, i32 6
  %14 = call { double, double } @_ZNK2cv6Point_IiEcvNS0_IT_EEIdEEv(ptr noundef nonnull align 4 dereferenceable(8) %13)
  %15 = getelementptr inbounds nuw { double, double }, ptr %3, i32 0, i32 0
  %16 = extractvalue { double, double } %14, 0
  store double %16, ptr %15, align 8
  %17 = getelementptr inbounds nuw { double, double }, ptr %3, i32 0, i32 1
  %18 = extractvalue { double, double } %14, 1
  store double %18, ptr %17, align 8
  %19 = getelementptr inbounds nuw { double, double }, ptr %3, i32 0, i32 0
  %20 = load double, ptr %19, align 8
  %21 = getelementptr inbounds nuw { double, double }, ptr %3, i32 0, i32 1
  %22 = load double, ptr %21, align 8
  call void @_ZN12_GLOBAL__N_124GeneralizedHoughGuilImpl16buildFeatureListERKN2cv3MatES4_S4_RSt6vectorIS5_INS0_7FeatureESaIS6_EESaIS8_EENS1_6Point_IdEE(ptr noundef nonnull align 8 dereferenceable(880) %4, ptr noundef nonnull align 8 dereferenceable(96) %6, ptr noundef nonnull align 8 dereferenceable(96) %8, ptr noundef nonnull align 8 dereferenceable(96) %10, ptr noundef nonnull align 8 dereferenceable(24) %11, double %20, double %22)
  ret void
}

; Function Attrs: uwtable
define internal void @_ZThn8_N12_GLOBAL__N_124GeneralizedHoughGuilImpl12processTemplEv(ptr noundef %0) unnamed_addr #17 align 2 {
  %2 = alloca ptr, align 8
  store ptr %0, ptr %2, align 8, !tbaa !429
  %3 = load ptr, ptr %2, align 8
  %4 = getelementptr inbounds i8, ptr %3, i64 -8
  tail call void @_ZN12_GLOBAL__N_124GeneralizedHoughGuilImpl12processTemplEv(ptr noundef nonnull align 8 dereferenceable(880) %4)
  ret void
}