; Function Attrs: uwtable
define internal void @_ZThn8_N12_GLOBAL__N_124GeneralizedHoughGuilImpl12processTemplEv(ptr noundef %0) unnamed_addr #18 align 2 {
  %2 = getelementptr inbounds i8, ptr %0, i64 -8
  %3 = getelementptr inbounds nuw i8, ptr %0, i64 48
  %4 = getelementptr inbounds nuw i8, ptr %0, i64 144
  %5 = getelementptr inbounds nuw i8, ptr %0, i64 240
  %6 = getelementptr inbounds nuw i8, ptr %0, i64 776
  %7 = getelementptr inbounds nuw i8, ptr %0, i64 40
  %8 = load i32, ptr %7, align 4, !tbaa !126
  %9 = sitofp i32 %8 to double
  %10 = getelementptr inbounds nuw i8, ptr %0, i64 44
  %11 = load i32, ptr %10, align 4, !tbaa !127
  %12 = sitofp i32 %11 to double
  tail call fastcc void @_ZN12_GLOBAL__N_124GeneralizedHoughGuilImpl16buildFeatureListERKN2cv3MatES4_S4_RSt6vectorIS5_INS0_7FeatureESaIS6_EESaIS8_EENS1_6Point_IdEE(ptr noundef nonnull align 8 dereferenceable(880) %2, ptr noundef nonnull align 8 dereferenceable(96) %3, ptr noundef nonnull align 8 dereferenceable(96) %4, ptr noundef nonnull align 8 dereferenceable(96) %5, ptr noundef nonnull align 8 dereferenceable(24) %6, double %9, double %12)
  ret void
}